target datalayout = "e-m:e-p270:32:32-p271:32:32-p272:64:64-i64:64-i128:128-f80:128-n8:16:32:64-S128"
target triple = "x86_64-pc-linux-gnu"

%struct.RClass_and_rb_classext_t = type { %struct.RClass, %struct.rb_classext_struct }
%struct.RClass = type { %struct.RBasic, i64, ptr }
%struct.RBasic = type { i64, i64 }
%struct.rb_classext_struct = type { ptr, ptr, ptr, ptr, ptr, i64, ptr, ptr, ptr, ptr, i64, i64, %union.anon, i64, i32, i8, i8, i64 }
%union.anon = type { %struct.anon }
%struct.anon = type { ptr }

@rb_eTypeError = external global i64, align 8
@.str.6 = private unnamed_addr constant [25 x i8] c"class or module required\00", align 1

; Function Attrs: inlinehint nounwind sspstrong willreturn memory(none) uwtable
define internal zeroext i1 @RB_IMMEDIATE_P(i64 noundef %0) #1 {
  %2 = alloca i64, align 8
  store i64 %0, ptr %2, align 8, !tbaa !11
  %3 = load i64, ptr %2, align 8, !tbaa !11
  %4 = and i64 %3, 7
  %5 = icmp ne i64 %4, 0
  ret i1 %5
}

; Function Attrs: inlinehint nounwind sspstrong uwtable
define internal i64 @RCLASS_SUPER(i64 noundef %0) #2 {
  %2 = alloca i64, align 8
  store i64 %0, ptr %2, align 8, !tbaa !11
  %3 = load i64, ptr %2, align 8, !tbaa !11
  %4 = inttoptr i64 %3 to ptr
  %5 = getelementptr inbounds nuw %struct.RClass, ptr %4, i32 0, i32 1
  %6 = load i64, ptr %5, align 8, !tbaa !31
  ret i64 %6
}

; Function Attrs: inlinehint nounwind sspstrong willreturn memory(read) uwtable
define internal i32 @RB_BUILTIN_TYPE(i64 noundef %0) #7 {
  %2 = alloca i64, align 8
  %3 = alloca i64, align 8
  store i64 %0, ptr %2, align 8, !tbaa !11
  call void @llvm.lifetime.start.p0(i64 8, ptr %3) #28
  %4 = load i64, ptr %2, align 8, !tbaa !11
  %5 = inttoptr i64 %4 to ptr
  %6 = getelementptr inbounds nuw %struct.RBasic, ptr %5, i32 0, i32 0
  %7 = load i64, ptr %6, align 8, !tbaa !28
  %8 = and i64 %7, 31
  store i64 %8, ptr %3, align 8, !tbaa !11
  %9 = load i64, ptr %3, align 8, !tbaa !11
  %10 = trunc i64 %9 to i32
  call void @llvm.lifetime.end.p0(i64 8, ptr %3) #28
  ret i32 %10
}

; Function Attrs: inlinehint nounwind sspstrong willreturn memory(none) uwtable
define internal zeroext i1 @RB_SPECIAL_CONST_P(i64 noundef %0) #1 {
  %2 = alloca i64, align 8
  store i64 %0, ptr %2, align 8, !tbaa !11
  %3 = load i64, ptr %2, align 8, !tbaa !11
  %4 = icmp eq i64 %3, 0
  br i1 %4, label %8, label %5

5:                                                ; preds = %1
  %6 = load i64, ptr %2, align 8, !tbaa !11
  %7 = call zeroext i1 @RB_IMMEDIATE_P(i64 noundef %6) #27
  br label %8

8:                                                ; preds = %5, %1
  %9 = phi i1 [ true, %1 ], [ %7, %5 ]
  ret i1 %9
}

; Function Attrs: nounwind sspstrong uwtable
define internal i64 @class_search_ancestor(i64 noundef %0, i64 noundef %1) #0 {
  %3 = alloca i64, align 8
  %4 = alloca i64, align 8
  %5 = alloca i64, align 8
  store i64 %0, ptr %4, align 8, !tbaa !11
  store i64 %1, ptr %5, align 8, !tbaa !11
  br label %6

6:                                                ; preds = %25, %2
  %7 = load i64, ptr %4, align 8, !tbaa !11
  %8 = icmp ne i64 %7, 0
  br i1 %8, label %9, label %28

9:                                                ; preds = %6
  %10 = load i64, ptr %4, align 8, !tbaa !11
  %11 = load i64, ptr %5, align 8, !tbaa !11
  %12 = icmp eq i64 %10, %11
  br i1 %12, label %23, label %13

13:                                               ; preds = %9
  %14 = load i64, ptr %4, align 8, !tbaa !11
  %15 = inttoptr i64 %14 to ptr
  %16 = getelementptr inbounds nuw %struct.RClass, ptr %15, i32 0, i32 2
  %17 = load ptr, ptr %16, align 8, !tbaa !65
  %18 = load i64, ptr %5, align 8, !tbaa !11
  %19 = inttoptr i64 %18 to ptr
  %20 = getelementptr inbounds nuw %struct.RClass, ptr %19, i32 0, i32 2
  %21 = load ptr, ptr %20, align 8, !tbaa !65
  %22 = icmp eq ptr %17, %21
  br i1 %22, label %23, label %25

23:                                               ; preds = %13, %9
  %24 = load i64, ptr %4, align 8, !tbaa !11
  store i64 %24, ptr %3, align 8
  br label %29

25:                                               ; preds = %13
  %26 = load i64, ptr %4, align 8, !tbaa !11
  %27 = call i64 @RCLASS_SUPER(i64 noundef %26)
  store i64 %27, ptr %4, align 8, !tbaa !11
  br label %6, !llvm.loop !66

28:                                               ; preds = %6
  store i64 0, ptr %3, align 8
  br label %29

29:                                               ; preds = %28, %23
  %30 = load i64, ptr %3, align 8
  ret i64 %30
}

; Function Attrs: nounwind sspstrong uwtable
define internal i64 @class_or_module_required(i64 noundef %0) #0 {
  %2 = alloca i64, align 8
  %3 = alloca i64, align 8
  %4 = alloca i32, align 4
  store i64 %0, ptr %2, align 8, !tbaa !11
  call void @llvm.lifetime.start.p0(i64 8, ptr %3) #28
  %5 = load i64, ptr %2, align 8, !tbaa !11
  store i64 %5, ptr %3, align 8, !tbaa !11
  %6 = load i64, ptr %3, align 8, !tbaa !11
  %7 = call zeroext i1 @RB_SPECIAL_CONST_P(i64 noundef %6) #27
  br i1 %7, label %8, label %9

8:                                                ; preds = %1
  br label %12

9:                                                ; preds = %1
  %10 = load i64, ptr %3, align 8, !tbaa !11
  %11 = call i32 @RB_BUILTIN_TYPE(i64 noundef %10) #29
  br label %12

12:                                               ; preds = %9, %8
  %13 = phi i32 [ -1, %8 ], [ %11, %9 ]
  store i32 %13, ptr %4, align 4, !tbaa !7
  call void @llvm.lifetime.end.p0(i64 8, ptr %3) #28
  %14 = load i32, ptr %4, align 4, !tbaa !7
  switch i32 %14, label %16 [
    i32 3, label %15
    i32 2, label %15
    i32 28, label %15
  ]

15:                                               ; preds = %12, %12, %12
  br label %18

16:                                               ; preds = %12
  %17 = load i64, ptr @rb_eTypeError, align 8, !tbaa !11
  call void (i64, ptr, ...) @rb_raise(i64 noundef %17, ptr noundef @.str.6) #31
  unreachable

18:                                               ; preds = %15
  %19 = load i64, ptr %2, align 8, !tbaa !11
  ret i64 %19
}

; Function Attrs: nounwind sspstrong uwtable
define hidden i64 @rb_class_search_ancestor(i64 noundef %0, i64 noundef %1) #0 {
  %3 = alloca i64, align 8
  %4 = alloca i64, align 8
  store i64 %0, ptr %3, align 8, !tbaa !11
  store i64 %1, ptr %4, align 8, !tbaa !11
  %5 = load i64, ptr %3, align 8, !tbaa !11
  %6 = call i64 @class_or_module_required(i64 noundef %5)
  store i64 %6, ptr %3, align 8, !tbaa !11
  %7 = load i64, ptr %4, align 8, !tbaa !11
  %8 = call i64 @class_or_module_required(i64 noundef %7)
  store i64 %8, ptr %4, align 8, !tbaa !11
  %9 = load i64, ptr %3, align 8, !tbaa !11
  %10 = load i64, ptr %4, align 8, !tbaa !11
  %11 = inttoptr i64 %10 to ptr
  %12 = getelementptr inbounds nuw %struct.RClass_and_rb_classext_t, ptr %11, i32 0, i32 1
  %13 = getelementptr inbounds nuw %struct.rb_classext_struct, ptr %12, i32 0, i32 10
  %14 = load i64, ptr %13, align 8, !tbaa !62
  %15 = call i64 @class_search_ancestor(i64 noundef %9, i64 noundef %14)
  ret i64 %15
}