; Function Attrs: nounwind sspstrong uwtable
define hidden i64 @rb_class_search_ancestor(i64 noundef %0, i64 noundef %1) local_unnamed_addr #2 {
  %3 = icmp eq i64 %0, 0
  %4 = and i64 %0, 7
  %5 = icmp ne i64 %4, 0
  %6 = or i1 %3, %5
  br i1 %6, label %.thread.i, label %7

7:                                                ; preds = %2
  %8 = inttoptr i64 %0 to ptr
  %9 = load i64, ptr %8, align 8, !tbaa !24
  %10 = trunc i64 %9 to i32
  %11 = and i32 %10, 31
  switch i32 %11, label %.thread.i [
    i32 3, label %class_or_module_required.exit
    i32 2, label %class_or_module_required.exit
    i32 28, label %class_or_module_required.exit
  ]

.thread.i:                                        ; preds = %7, %2
  %12 = load i64, ptr @rb_eTypeError, align 8, !tbaa !7
  tail call void (i64, ptr, ...) @rb_raise(i64 noundef %12, ptr noundef nonnull @.str.6) #24
  unreachable

class_or_module_required.exit:                    ; preds = %7, %7, %7
  %13 = icmp eq i64 %1, 0
  %14 = and i64 %1, 7
  %15 = icmp ne i64 %14, 0
  %16 = or i1 %13, %15
  br i1 %16, label %.thread.i4, label %17

17:                                               ; preds = %class_or_module_required.exit
  %18 = inttoptr i64 %1 to ptr
  %19 = load i64, ptr %18, align 8, !tbaa !24
  %20 = trunc i64 %19 to i32
  %21 = and i32 %20, 31
  switch i32 %21, label %.thread.i4 [
    i32 3, label %class_or_module_required.exit5
    i32 2, label %class_or_module_required.exit5
    i32 28, label %class_or_module_required.exit5
  ]

.thread.i4:                                       ; preds = %17, %class_or_module_required.exit
  %22 = load i64, ptr @rb_eTypeError, align 8, !tbaa !7
  tail call void (i64, ptr, ...) @rb_raise(i64 noundef %22, ptr noundef nonnull @.str.6) #24
  unreachable

class_or_module_required.exit5:                   ; preds = %17, %17, %17
  %23 = getelementptr inbounds nuw i8, ptr %18, i64 112
  %24 = load i64, ptr %23, align 8, !tbaa !50
  %25 = icmp eq i64 %0, %24
  br i1 %25, label %class_search_ancestor.exit, label %.lr.ph.i

.lr.ph.i:                                         ; preds = %class_or_module_required.exit5
  %26 = inttoptr i64 %24 to ptr
  %27 = getelementptr inbounds nuw i8, ptr %26, i64 24
  %28 = load ptr, ptr %27, align 8, !tbaa !51
  br label %29

29:                                               ; preds = %34, %.lr.ph.i
  %.0812.i = phi i64 [ %0, %.lr.ph.i ], [ %36, %34 ]
  %30 = inttoptr i64 %.0812.i to ptr
  %31 = getelementptr inbounds nuw i8, ptr %30, i64 24
  %32 = load ptr, ptr %31, align 8, !tbaa !51
  %33 = icmp eq ptr %32, %28
  br i1 %33, label %class_search_ancestor.exit, label %34

34:                                               ; preds = %29
  %35 = getelementptr inbounds nuw i8, ptr %30, i64 16
  %36 = load i64, ptr %35, align 8, !tbaa !25
  %.not.i = icmp eq i64 %36, 0
  %37 = icmp eq i64 %36, %24
  %or.cond.i = or i1 %.not.i, %37
  br i1 %or.cond.i, label %class_search_ancestor.exit, label %29, !llvm.loop !52

class_search_ancestor.exit:                       ; preds = %29, %34, %class_or_module_required.exit5
  %.08.lcssa.i = phi i64 [ %0, %class_or_module_required.exit5 ], [ %.0812.i, %29 ], [ %36, %34 ]
  ret i64 %.08.lcssa.i
}